; Function Attrs: mustprogress nounwind uwtable
define dso_local void @_ZN4llvm5APInt13initFromArrayENS_8ArrayRefImEE(ptr noundef nonnull align 8 captures(none) dereferenceable(12) initializes((0, 8)) %0, ptr readonly captures(none) %1, i64 %2) local_unnamed_addr #0 align 2 {
  %4 = getelementptr inbounds nuw i8, ptr %0, i64 8
  %5 = load i32, ptr %4, align 8
  %6 = icmp ult i32 %5, 65
  br i1 %6, label %7, label %16

7:                                                ; preds = %3
  %8 = load i64, ptr %1, align 8
  %9 = add nuw nsw i32 %5, 63
  %10 = and i32 %9, 63
  %11 = xor i32 %10, 63
  %12 = zext nneg i32 %11 to i64
  %13 = lshr i64 -1, %12
  %14 = icmp eq i32 %5, 0
  %spec.store.select.i = select i1 %14, i64 0, i64 %13
  %15 = and i64 %spec.store.select.i, %8
  store i64 %15, ptr %0, align 8
  br label %_ZN4llvm5APInt15clearUnusedBitsEv.exit

16:                                               ; preds = %3
  %17 = zext i32 %5 to i64
  %18 = add nuw nsw i64 %17, 63
  %19 = lshr i64 %18, 6
  %20 = trunc nuw nsw i64 %19 to i32
  %21 = shl nuw nsw i64 %19, 3
  %22 = tail call noalias noundef nonnull ptr @_Znam(i64 noundef %21) #21
  tail call void @llvm.memset.p0.i64(ptr nonnull align 8 %22, i8 0, i64 %21, i1 false)
  store ptr %22, ptr %0, align 8
  %23 = trunc i64 %2 to i32
  %.sroa.speculated = tail call i32 @llvm.umin.i32(i32 %20, i32 %23)
  %24 = shl nuw nsw i32 %.sroa.speculated, 3
  %25 = zext nneg i32 %24 to i64
  tail call void @llvm.memcpy.p0.p0.i64(ptr nonnull align 8 %22, ptr align 8 %1, i64 %25, i1 false)
  %26 = add i32 %5, 63
  %27 = and i32 %26, 63
  %28 = xor i32 %27, 63
  %29 = zext nneg i32 %28 to i64
  %30 = lshr i64 -1, %29
  %31 = add nuw nsw i64 %19, 4294967295
  %32 = and i64 %31, 4294967295
  %33 = getelementptr inbounds nuw i64, ptr %22, i64 %32
  %34 = load i64, ptr %33, align 8
  %35 = and i64 %34, %30
  store i64 %35, ptr %33, align 8
  br label %_ZN4llvm5APInt15clearUnusedBitsEv.exit

_ZN4llvm5APInt15clearUnusedBitsEv.exit:           ; preds = %7, %16
  ret void
}